; ModuleID = 'source-C-CXX/48/524.cpp'
source_filename = "source-C-CXX/48/524.cpp"
target datalayout = "e-m:e-p270:32:32-p271:32:32-p272:64:64-i64:64-f80:128-n8:16:32:64-S128"
target triple = "x86_64-pc-linux-gnu"

%"class.std::ios_base::Init" = type { i8 }
%"class.std::basic_istream" = type { i32 (...)**, i64, %"class.std::basic_ios" }
%"class.std::basic_ios" = type { %"class.std::ios_base", %"class.std::basic_ostream"*, i8, i8, %"class.std::basic_streambuf"*, %"class.std::ctype"*, %"class.std::num_put"*, %"class.std::num_get"* }
%"class.std::ios_base" = type { i32 (...)**, i64, i64, i32, i32, i32, %"struct.std::ios_base::_Callback_list"*, %"struct.std::ios_base::_Words", [8 x %"struct.std::ios_base::_Words"], i32, %"struct.std::ios_base::_Words"*, %"class.std::locale" }
%"struct.std::ios_base::_Callback_list" = type { %"struct.std::ios_base::_Callback_list"*, void (i32, %"class.std::ios_base"*, i32)*, i32, i32 }
%"struct.std::ios_base::_Words" = type { i8*, i64 }
%"class.std::locale" = type { %"class.std::locale::_Impl"* }
%"class.std::locale::_Impl" = type { i32, %"class.std::locale::facet"**, i64, %"class.std::locale::facet"**, i8** }
%"class.std::locale::facet" = type <{ i32 (...)**, i32, [4 x i8] }>
%"class.std::basic_ostream" = type { i32 (...)**, %"class.std::basic_ios" }
%"class.std::basic_streambuf" = type { i32 (...)**, i8*, i8*, i8*, i8*, i8*, i8*, %"class.std::locale" }
%"class.std::ctype" = type <{ %"class.std::locale::facet.base", [4 x i8], %struct.__locale_struct*, i8, [7 x i8], i32*, i32*, i16*, i8, [256 x i8], [256 x i8], i8, [6 x i8] }>
%"class.std::locale::facet.base" = type <{ i32 (...)**, i32 }>
%struct.__locale_struct = type { [13 x %struct.__locale_data*], i16*, i32*, i32*, [13 x i8*] }
%struct.__locale_data = type opaque
%"class.std::num_put" = type { %"class.std::locale::facet.base", [4 x i8] }
%"class.std::num_get" = type { %"class.std::locale::facet.base", [4 x i8] }

@_ZStL8__ioinit = internal global %"class.std::ios_base::Init" zeroinitializer, align 1
@__dso_handle = external hidden global i8
@_ZSt3cin = external global %"class.std::basic_istream", align 8
@_ZSt4cout = external global %"class.std::basic_ostream", align 8
@llvm.global_ctors = appending global [1 x { i32, void ()*, i8* }] [{ i32, void ()*, i8* } { i32 65535, void ()* @_GLOBAL__sub_I_524.cpp, i8* null }]

declare void @_ZNSt8ios_base4InitC1Ev(%"class.std::ios_base::Init"* nonnull align 1 dereferenceable(1)) unnamed_addr #0

; Function Attrs: nounwind
declare void @_ZNSt8ios_base4InitD1Ev(%"class.std::ios_base::Init"* nonnull align 1 dereferenceable(1)) unnamed_addr #1

; Function Attrs: nofree nounwind
declare i32 @__cxa_atexit(void (i8*)*, i8*, i8*) local_unnamed_addr #2

; Function Attrs: mustprogress norecurse sspstrong uwtable
define dso_local i32 @main() local_unnamed_addr #3 {
  %1 = alloca i8, align 1
  %2 = alloca [501 x i8], align 16
  %3 = getelementptr inbounds [501 x i8], [501 x i8]* %2, i64 0, i64 0
  call void @llvm.lifetime.start.p0i8(i64 501, i8* nonnull %3) #8
  call void @_ZSt17__istream_extractRSiPcl(%"class.std::basic_istream"* nonnull align 8 dereferenceable(16) @_ZSt3cin, i8* nonnull %3, i64 501)
  %4 = call i64 @strlen(i8* noundef nonnull %3) #9
  %5 = trunc i64 %4 to i32
  %6 = icmp slt i32 %5, 2
  br i1 %6, label %90, label %7

7:                                                ; preds = %0
  %8 = add i64 %4, 1
  %9 = and i64 %8, 4294967295
  br label %10

10:                                               ; preds = %7, %85
  %11 = phi i32 [ %5, %7 ], [ %15, %85 ]
  %12 = phi i64 [ 2, %7 ], [ %88, %85 ]
  %13 = phi i32 [ 1, %7 ], [ %87, %85 ]
  %14 = phi i32 [ 2, %7 ], [ %86, %85 ]
  %15 = add i32 %11, -1
  %16 = icmp sgt i32 %14, %5
  br i1 %16, label %85, label %17

17:                                               ; preds = %10
  %18 = zext i32 %15 to i64
  br label %19

19:                                               ; preds = %17, %79
  %20 = phi i64 [ %12, %17 ], [ %83, %79 ]
  %21 = phi i64 [ 0, %17 ], [ %82, %79 ]
  %22 = phi i32 [ %13, %17 ], [ %81, %79 ]
  %23 = phi i32 [ 0, %17 ], [ %80, %79 ]
  %24 = add nuw nsw i32 %23, %14
  %25 = add nsw i32 %24, -1
  %26 = icmp slt i32 %23, %25
  br i1 %26, label %28, label %27

27:                                               ; preds = %30, %19
  br label %44

28:                                               ; preds = %19
  %29 = sext i32 %22 to i64
  br label %35

30:                                               ; preds = %35
  %31 = add nsw i64 %37, -1
  %32 = shl i64 %43, 32
  %33 = ashr exact i64 %32, 32
  %34 = icmp slt i64 %33, %31
  br i1 %34, label %35, label %27, !llvm.loop !5

35:                                               ; preds = %28, %30
  %36 = phi i64 [ %21, %28 ], [ %43, %30 ]
  %37 = phi i64 [ %29, %28 ], [ %31, %30 ]
  %38 = getelementptr inbounds [501 x i8], [501 x i8]* %2, i64 0, i64 %36
  %39 = load i8, i8* %38, align 1, !tbaa !7
  %40 = getelementptr inbounds [501 x i8], [501 x i8]* %2, i64 0, i64 %37
  %41 = load i8, i8* %40, align 1, !tbaa !7
  %42 = icmp eq i8 %39, %41
  %43 = add nuw nsw i64 %36, 1
  br i1 %42, label %30, label %79

44:                                               ; preds = %27, %44
  %45 = phi i64 [ %49, %44 ], [ %21, %27 ]
  %46 = getelementptr inbounds [501 x i8], [501 x i8]* %2, i64 0, i64 %45
  %47 = load i8, i8* %46, align 1, !tbaa !7
  call void @llvm.lifetime.start.p0i8(i64 1, i8* nonnull %1)
  store i8 %47, i8* %1, align 1, !tbaa !7
  %48 = call nonnull align 8 dereferenceable(8) %"class.std::basic_ostream"* @_ZSt16__ostream_insertIcSt11char_traitsIcEERSt13basic_ostreamIT_T0_ES6_PKS3_l(%"class.std::basic_ostream"* nonnull align 8 dereferenceable(8) @_ZSt4cout, i8* nonnull %1, i64 1)
  call void @llvm.lifetime.end.p0i8(i64 1, i8* nonnull %1)
  %49 = add nuw nsw i64 %45, 1
  %50 = icmp eq i64 %49, %20
  br i1 %50, label %51, label %44, !llvm.loop !10

51:                                               ; preds = %44
  %52 = load i8*, i8** bitcast (%"class.std::basic_ostream"* @_ZSt4cout to i8**), align 8, !tbaa !11
  %53 = getelementptr i8, i8* %52, i64 -24
  %54 = bitcast i8* %53 to i64*
  %55 = load i64, i64* %54, align 8
  %56 = add nsw i64 %55, 240
  %57 = getelementptr inbounds i8, i8* bitcast (%"class.std::basic_ostream"* @_ZSt4cout to i8*), i64 %56
  %58 = bitcast i8* %57 to %"class.std::ctype"**
  %59 = load %"class.std::ctype"*, %"class.std::ctype"** %58, align 8, !tbaa !13
  %60 = icmp eq %"class.std::ctype"* %59, null
  br i1 %60, label %61, label %62

61:                                               ; preds = %51
  call void @_ZSt16__throw_bad_castv() #10
  unreachable

62:                                               ; preds = %51
  %63 = getelementptr inbounds %"class.std::ctype", %"class.std::ctype"* %59, i64 0, i32 8
  %64 = load i8, i8* %63, align 8, !tbaa !17
  %65 = icmp eq i8 %64, 0
  br i1 %65, label %69, label %66

66:                                               ; preds = %62
  %67 = getelementptr inbounds %"class.std::ctype", %"class.std::ctype"* %59, i64 0, i32 9, i64 10
  %68 = load i8, i8* %67, align 1, !tbaa !7
  br label %75

69:                                               ; preds = %62
  call void @_ZNKSt5ctypeIcE13_M_widen_initEv(%"class.std::ctype"* nonnull align 8 dereferenceable(570) %59)
  %70 = bitcast %"class.std::ctype"* %59 to i8 (%"class.std::ctype"*, i8)***
  %71 = load i8 (%"class.std::ctype"*, i8)**, i8 (%"class.std::ctype"*, i8)*** %70, align 8, !tbaa !11
  %72 = getelementptr inbounds i8 (%"class.std::ctype"*, i8)*, i8 (%"class.std::ctype"*, i8)** %71, i64 6
  %73 = load i8 (%"class.std::ctype"*, i8)*, i8 (%"class.std::ctype"*, i8)** %72, align 8
  %74 = call signext i8 %73(%"class.std::ctype"* nonnull align 8 dereferenceable(570) %59, i8 signext 10)
  br label %75

75:                                               ; preds = %66, %69
  %76 = phi i8 [ %68, %66 ], [ %74, %69 ]
  %77 = call nonnull align 8 dereferenceable(8) %"class.std::basic_ostream"* @_ZNSo3putEc(%"class.std::basic_ostream"* nonnull align 8 dereferenceable(8) @_ZSt4cout, i8 signext %76)
  %78 = call nonnull align 8 dereferenceable(8) %"class.std::basic_ostream"* @_ZNSo5flushEv(%"class.std::basic_ostream"* nonnull align 8 dereferenceable(8) %77)
  br label %79

79:                                               ; preds = %35, %75
  %80 = add nuw nsw i32 %23, 1
  %81 = add nuw i32 %22, 1
  %82 = add nuw nsw i64 %21, 1
  %83 = add nuw nsw i64 %20, 1
  %84 = icmp eq i64 %82, %18
  br i1 %84, label %85, label %19, !llvm.loop !19

85:                                               ; preds = %79, %10
  %86 = add nuw nsw i32 %14, 1
  %87 = add nuw nsw i32 %13, 1
  %88 = add nuw nsw i64 %12, 1
  %89 = icmp eq i64 %88, %9
  br i1 %89, label %90, label %10, !llvm.loop !20

90:                                               ; preds = %85, %0
  call void @llvm.lifetime.end.p0i8(i64 501, i8* nonnull %3) #8
  ret i32 0
}

; Function Attrs: argmemonly mustprogress nofree nosync nounwind willreturn
declare void @llvm.lifetime.start.p0i8(i64 immarg, i8* nocapture) #4

; Function Attrs: argmemonly mustprogress nofree nounwind readonly willreturn
declare i64 @strlen(i8* nocapture) local_unnamed_addr #5

; Function Attrs: argmemonly mustprogress nofree nosync nounwind willreturn
declare void @llvm.lifetime.end.p0i8(i64 immarg, i8* nocapture) #4

declare void @_ZSt17__istream_extractRSiPcl(%"class.std::basic_istream"* nonnull align 8 dereferenceable(16), i8*, i64) local_unnamed_addr #0

declare nonnull align 8 dereferenceable(8) %"class.std::basic_ostream"* @_ZSt16__ostream_insertIcSt11char_traitsIcEERSt13basic_ostreamIT_T0_ES6_PKS3_l(%"class.std::basic_ostream"* nonnull align 8 dereferenceable(8), i8*, i64) local_unnamed_addr #0

declare nonnull align 8 dereferenceable(8) %"class.std::basic_ostream"* @_ZNSo3putEc(%"class.std::basic_ostream"* nonnull align 8 dereferenceable(8), i8 signext) local_unnamed_addr #0

declare nonnull align 8 dereferenceable(8) %"class.std::basic_ostream"* @_ZNSo5flushEv(%"class.std::basic_ostream"* nonnull align 8 dereferenceable(8)) local_unnamed_addr #0

; Function Attrs: noreturn
declare void @_ZSt16__throw_bad_castv() local_unnamed_addr #6

declare void @_ZNKSt5ctypeIcE13_M_widen_initEv(%"class.std::ctype"* nonnull align 8 dereferenceable(570)) local_unnamed_addr #0

; Function Attrs: sspstrong uwtable
define internal void @_GLOBAL__sub_I_524.cpp() #7 section ".text.startup" {
  tail call void @_ZNSt8ios_base4InitC1Ev(%"class.std::ios_base::Init"* nonnull align 1 dereferenceable(1) @_ZStL8__ioinit)
  %1 = tail call i32 @__cxa_atexit(void (i8*)* bitcast (void (%"class.std::ios_base::Init"*)* @_ZNSt8ios_base4InitD1Ev to void (i8*)*), i8* getelementptr inbounds (%"class.std::ios_base::Init", %"class.std::ios_base::Init"* @_ZStL8__ioinit, i64 0, i32 0), i8* nonnull @__dso_handle) #8
  ret void
}


!llvm.module.flags = !{!0, !1, !2, !3}
!llvm.ident = !{!4}

!0 = !{i32 1, !"wchar_size", i32 4}
!1 = !{i32 7, !"PIC Level", i32 2}
!2 = !{i32 7, !"PIE Level", i32 2}
!3 = !{i32 7, !"uwtable", i32 1}
!4 = !{!"clang version 13.0.0"}
!5 = distinct !{!5, !6}
!6 = !{!"llvm.loop.mustprogress"}
!7 = !{!8, !8, i64 0}
!8 = !{!"omnipotent char", !9, i64 0}
!9 = !{!"Simple C++ TBAA"}
!10 = distinct !{!10, !6}
!11 = !{!12, !12, i64 0}
!12 = !{!"vtable pointer", !9, i64 0}
!13 = !{!14, !15, i64 240}
!14 = !{!"_ZTSSt9basic_iosIcSt11char_traitsIcEE", !15, i64 216, !8, i64 224, !16, i64 225, !15, i64 232, !15, i64 240, !15, i64 248, !15, i64 256}
!15 = !{!"any pointer", !8, i64 0}
!16 = !{!"bool", !8, i64 0}
!17 = !{!18, !8, i64 56}
!18 = !{!"_ZTSSt5ctypeIcE", !15, i64 16, !16, i64 24, !15, i64 32, !15, i64 40, !15, i64 48, !8, i64 56, !8, i64 57, !8, i64 313, !8, i64 569}
!19 = distinct !{!19, !6}
!20 = distinct !{!20, !6}
